target datalayout = "e-m:e-p270:32:32-p271:32:32-p272:64:64-i64:64-i128:128-f80:128-n8:16:32:64-S128"
target triple = "x86_64-unknown-linux-gnu"

%struct.V9fsState = type { %struct.anon, %struct.anon.0, ptr, ptr, %struct.FsContext, ptr, i32, i32, [128 x %struct.V9fsPDU], ptr, %struct.CoRwlock, i32, ptr, %struct.V9fsConf, %struct.stat, i64, %struct.qht, %struct.qht, %struct.qht, i64, i16, i64 }
%struct.anon = type { ptr }
%struct.anon.0 = type { ptr }
%struct.FsContext = type { i32, ptr, i32, ptr, %struct.ExtendedOps, ptr, ptr, i32, i32 }
%struct.ExtendedOps = type { ptr }
%struct.V9fsPDU = type { i32, i16, i8, i8, %struct.CoQueue, ptr, %struct.anon.2, i32 }
%struct.CoQueue = type { %struct.anon.1 }
%struct.anon.1 = type { ptr, ptr }
%struct.anon.2 = type { ptr, ptr }
%struct.CoRwlock = type { %struct.CoMutex, i32, %struct.anon.4 }
%struct.CoMutex = type { i32, ptr, %struct.anon.3, %struct.anon.3, i32, i32, ptr }
%struct.anon.3 = type { ptr }
%struct.anon.4 = type { ptr, ptr }
%struct.V9fsConf = type { ptr, ptr }
%struct.stat = type { i64, i64, i64, i32, i32, i32, i32, i64, i64, i64, i64, %struct.timespec, %struct.timespec, %struct.timespec, [3 x i64] }
%struct.timespec = type { i64, i64 }
%struct.qht = type { ptr, ptr, %struct.QemuMutex, i32 }
%struct.QemuMutex = type { %union.pthread_mutex_t, i8 }
%union.pthread_mutex_t = type { %struct.__pthread_mutex_s }
%struct.__pthread_mutex_s = type { i32, i32, i32, i32, i32, i16, i16, %struct.__pthread_internal_list }
%struct.__pthread_internal_list = type { ptr, ptr }
%struct.statfs = type { i64, i64, i64, i64, i64, i64, i64, %struct.__fsid_t, i64, i64, i64, [4 x i64] }
%struct.__fsid_t = type { [2 x i32] }

; Function Attrs: nounwind sspstrong uwtable
define internal i32 @blksize_to_iounit(ptr noundef %pdu, i32 noundef %blksize) #0 {
entry:
  %pdu.addr = alloca ptr, align 8
  %blksize.addr = alloca i32, align 4
  %iounit = alloca i32, align 4
  %s = alloca ptr, align 8
  store ptr %pdu, ptr %pdu.addr, align 8
  store i32 %blksize, ptr %blksize.addr, align 4
  store i32 0, ptr %iounit, align 4
  %0 = load ptr, ptr %pdu.addr, align 8
  %s1 = getelementptr inbounds %struct.V9fsPDU, ptr %0, i32 0, i32 5
  %1 = load ptr, ptr %s1, align 8
  store ptr %1, ptr %s, align 8
  %2 = load i32, ptr %blksize.addr, align 4
  %tobool = icmp ne i32 %2, 0
  br i1 %tobool, label %if.then, label %if.end

if.then:                                          ; preds = %entry
  %3 = load ptr, ptr %s, align 8
  %msize = getelementptr inbounds %struct.V9fsState, ptr %3, i32 0, i32 7
  %4 = load i32, ptr %msize, align 4
  %sub = sub i32 %4, 24
  %5 = load i32, ptr %blksize.addr, align 4
  %div = sdiv i32 %sub, %5
  %6 = load i32, ptr %blksize.addr, align 4
  %mul = mul i32 %div, %6
  store i32 %mul, ptr %iounit, align 4
  br label %if.end

if.end:                                           ; preds = %if.then, %entry
  %7 = load i32, ptr %iounit, align 4
  %tobool2 = icmp ne i32 %7, 0
  br i1 %tobool2, label %if.end6, label %if.then3

if.then3:                                         ; preds = %if.end
  %8 = load ptr, ptr %s, align 8
  %msize4 = getelementptr inbounds %struct.V9fsState, ptr %8, i32 0, i32 7
  %9 = load i32, ptr %msize4, align 4
  %sub5 = sub i32 %9, 24
  store i32 %sub5, ptr %iounit, align 4
  br label %if.end6

if.end6:                                          ; preds = %if.then3, %if.end
  %10 = load i32, ptr %iounit, align 4
  ret i32 %10
}

; Function Attrs: nounwind sspstrong uwtable
define internal i32 @get_iounit(ptr noundef %pdu, ptr noundef %path) #0 {
entry:
  %pdu.addr = alloca ptr, align 8
  %path.addr = alloca ptr, align 8
  %stbuf = alloca %struct.statfs, align 8
  %err = alloca i32, align 4
  store ptr %pdu, ptr %pdu.addr, align 8
  store ptr %path, ptr %path.addr, align 8
  %0 = load ptr, ptr %pdu.addr, align 8
  %1 = load ptr, ptr %path.addr, align 8
  %call = call i32 @v9fs_co_statfs(ptr noundef %0, ptr noundef %1, ptr noundef %stbuf)
  store i32 %call, ptr %err, align 4
  %2 = load ptr, ptr %pdu.addr, align 8
  %3 = load i32, ptr %err, align 4
  %cmp = icmp sge i32 %3, 0
  br i1 %cmp, label %cond.true, label %cond.false

cond.true:                                        ; preds = %entry
  %f_bsize = getelementptr inbounds %struct.statfs, ptr %stbuf, i32 0, i32 1
  %4 = load i64, ptr %f_bsize, align 8
  br label %cond.end

cond.false:                                       ; preds = %entry
  br label %cond.end

cond.end:                                         ; preds = %cond.false, %cond.true
  %cond = phi i64 [ %4, %cond.true ], [ 0, %cond.false ]
  %conv = trunc i64 %cond to i32
  %call1 = call i32 @blksize_to_iounit(ptr noundef %2, i32 noundef %conv)
  ret i32 %call1
}