; Function Attrs: nounwind sspstrong uwtable
define internal i32 @get_iounit(ptr noundef %pdu, ptr noundef %path) #0 {
entry:
  %stbuf = alloca %struct.statfs, align 8
  %call = call i32 @v9fs_co_statfs(ptr noundef %pdu, ptr noundef %path, ptr noundef nonnull %stbuf) #24
  %f_bsize = getelementptr inbounds nuw i8, ptr %stbuf, i64 8
  %0 = load i64, ptr %f_bsize, align 8
  %1 = trunc i64 %0 to i32
  %cmp.inv = icmp slt i32 %call, 0
  %2 = getelementptr i8, ptr %pdu, i64 24
  %pdu.val = load ptr, ptr %2, align 8
  %tobool.not.i2 = icmp eq i32 %1, 0
  %tobool.not.i = select i1 %cmp.inv, i1 true, i1 %tobool.not.i2
  %msize4.phi.trans.insert.i = getelementptr inbounds nuw i8, ptr %pdu.val, i64 108
  %.pre.i = load i32, ptr %msize4.phi.trans.insert.i, align 4
  %.fr.i = freeze i32 %.pre.i
  %.pre = add i32 %.fr.i, -24
  br i1 %tobool.not.i, label %blksize_to_iounit.exit, label %if.end.i

if.end.i:                                         ; preds = %entry
  %3 = srem i32 %.pre, %1
  %tobool2.not.i = icmp eq i32 %.pre, %3
  %mul.i = select i1 %tobool2.not.i, i32 0, i32 %3
  %spec.select = sub nsw i32 %.pre, %mul.i
  br label %blksize_to_iounit.exit

blksize_to_iounit.exit:                           ; preds = %if.end.i, %entry
  %iounit.1.i = phi i32 [ %.pre, %entry ], [ %spec.select, %if.end.i ]
  ret i32 %iounit.1.i
}